target datalayout = "e-m:e-p270:32:32-p271:32:32-p272:64:64-i64:64-i128:128-f80:128-n8:16:32:64-S128"
target triple = "x86_64-unknown-linux-gnu"

%class.b2ContactManager = type { %class.b2BroadPhase, ptr, i32, ptr, ptr, ptr }
%class.b2BroadPhase = type <{ %class.b2DynamicTree, i32, [4 x i8], ptr, i32, i32, ptr, i32, i32, i32, [4 x i8] }>
%class.b2DynamicTree = type { i32, ptr, i32, i32, i32, i32 }
%class.b2Contact = type { ptr, i32, ptr, ptr, %struct.b2ContactEdge, %struct.b2ContactEdge, ptr, ptr, i32, i32, %struct.b2Manifold, i32, float, float, float, float, float }
%struct.b2ContactEdge = type { ptr, ptr, ptr, ptr }
%struct.b2Manifold = type { [2 x %struct.b2ManifoldPoint], %struct.b2Vec2, %struct.b2Vec2, i32, i32 }
%struct.b2ManifoldPoint = type { %struct.b2Vec2, float, float, %union.b2ContactID }
%union.b2ContactID = type { i32 }
%struct.b2Vec2 = type { float, float }
%class.b2Body = type { i32, i16, i32, %struct.b2Transform, %struct.b2Sweep, %struct.b2Vec2, float, %struct.b2Vec2, float, ptr, ptr, ptr, ptr, i32, ptr, ptr, float, float, float, float, float, float, float, float, %struct.b2BodyUserData }
%struct.b2Transform = type { %struct.b2Vec2, %struct.b2Rot }
%struct.b2Rot = type { float, float }
%struct.b2Sweep = type { %struct.b2Vec2, %struct.b2Vec2, %struct.b2Vec2, float, float, float }
%struct.b2BodyUserData = type { i64 }
%class.b2Fixture = type { float, ptr, ptr, ptr, float, float, float, ptr, i32, %struct.b2Filter, i8, %struct.b2FixtureUserData }
%struct.b2Filter = type { i16, i16, i16 }
%struct.b2FixtureUserData = type { i64 }

; Function Attrs: mustprogress nounwind uwtable
define linkonce_odr hidden noundef zeroext i1 @_ZNK9b2Contact10IsTouchingEv(ptr noundef nonnull align 8 dereferenceable(208) %this) #1 comdat align 2 {
entry:
  %this.addr = alloca ptr, align 8
  store ptr %this, ptr %this.addr, align 8
  %this1 = load ptr, ptr %this.addr, align 8
  %m_flags = getelementptr inbounds %class.b2Contact, ptr %this1, i32 0, i32 1
  %0 = load i32, ptr %m_flags, align 8
  %and = and i32 %0, 2
  %cmp = icmp eq i32 %and, 2
  ret i1 %cmp
}

; Function Attrs: mustprogress nounwind uwtable
define linkonce_odr hidden noundef ptr @_ZN9b2Fixture7GetBodyEv(ptr noundef nonnull align 8 dereferenceable(80) %this) #1 comdat align 2 {
entry:
  %this.addr = alloca ptr, align 8
  store ptr %this, ptr %this.addr, align 8
  %this1 = load ptr, ptr %this.addr, align 8
  %m_body = getelementptr inbounds %class.b2Fixture, ptr %this1, i32 0, i32 2
  %0 = load ptr, ptr %m_body, align 8
  ret ptr %0
}

; Function Attrs: mustprogress nounwind uwtable
define linkonce_odr hidden noundef ptr @_ZN9b2Contact11GetFixtureBEv(ptr noundef nonnull align 8 dereferenceable(208) %this) #1 comdat align 2 {
entry:
  %this.addr = alloca ptr, align 8
  store ptr %this, ptr %this.addr, align 8
  %this1 = load ptr, ptr %this.addr, align 8
  %m_fixtureB = getelementptr inbounds %class.b2Contact, ptr %this1, i32 0, i32 7
  %0 = load ptr, ptr %m_fixtureB, align 8
  ret ptr %0
}

; Function Attrs: mustprogress nounwind uwtable
define linkonce_odr hidden noundef ptr @_ZN9b2Contact11GetFixtureAEv(ptr noundef nonnull align 8 dereferenceable(208) %this) #1 comdat align 2 {
entry:
  %this.addr = alloca ptr, align 8
  store ptr %this, ptr %this.addr, align 8
  %this1 = load ptr, ptr %this.addr, align 8
  %m_fixtureA = getelementptr inbounds %class.b2Contact, ptr %this1, i32 0, i32 6
  %0 = load ptr, ptr %m_fixtureA, align 8
  ret ptr %0
}

; Function Attrs: mustprogress uwtable
define void @_ZN16b2ContactManager7DestroyEP9b2Contact(ptr noundef nonnull align 8 dereferenceable(120) %this, ptr noundef %c) #3 align 2 {
entry:
  %this.addr = alloca ptr, align 8
  %c.addr = alloca ptr, align 8
  %fixtureA = alloca ptr, align 8
  %fixtureB = alloca ptr, align 8
  %bodyA = alloca ptr, align 8
  %bodyB = alloca ptr, align 8
  store ptr %this, ptr %this.addr, align 8
  store ptr %c, ptr %c.addr, align 8
  %this1 = load ptr, ptr %this.addr, align 8
  %0 = load ptr, ptr %c.addr, align 8
  %call = call noundef ptr @_ZN9b2Contact11GetFixtureAEv(ptr noundef nonnull align 8 dereferenceable(208) %0)
  store ptr %call, ptr %fixtureA, align 8
  %1 = load ptr, ptr %c.addr, align 8
  %call2 = call noundef ptr @_ZN9b2Contact11GetFixtureBEv(ptr noundef nonnull align 8 dereferenceable(208) %1)
  store ptr %call2, ptr %fixtureB, align 8
  %2 = load ptr, ptr %fixtureA, align 8
  %call3 = call noundef ptr @_ZN9b2Fixture7GetBodyEv(ptr noundef nonnull align 8 dereferenceable(80) %2)
  store ptr %call3, ptr %bodyA, align 8
  %3 = load ptr, ptr %fixtureB, align 8
  %call4 = call noundef ptr @_ZN9b2Fixture7GetBodyEv(ptr noundef nonnull align 8 dereferenceable(80) %3)
  store ptr %call4, ptr %bodyB, align 8
  %m_contactListener = getelementptr inbounds %class.b2ContactManager, ptr %this1, i32 0, i32 4
  %4 = load ptr, ptr %m_contactListener, align 8
  %tobool = icmp ne ptr %4, null
  br i1 %tobool, label %land.lhs.true, label %if.end

land.lhs.true:                                    ; preds = %entry
  %5 = load ptr, ptr %c.addr, align 8
  %call5 = call noundef zeroext i1 @_ZNK9b2Contact10IsTouchingEv(ptr noundef nonnull align 8 dereferenceable(208) %5)
  br i1 %call5, label %if.then, label %if.end

if.then:                                          ; preds = %land.lhs.true
  %m_contactListener6 = getelementptr inbounds %class.b2ContactManager, ptr %this1, i32 0, i32 4
  %6 = load ptr, ptr %m_contactListener6, align 8
  %7 = load ptr, ptr %c.addr, align 8
  %vtable = load ptr, ptr %6, align 8
  %vfn = getelementptr inbounds ptr, ptr %vtable, i64 3
  %8 = load ptr, ptr %vfn, align 8
  call void %8(ptr noundef nonnull align 8 dereferenceable(8) %6, ptr noundef %7)
  br label %if.end

if.end:                                           ; preds = %if.then, %land.lhs.true, %entry
  %9 = load ptr, ptr %c.addr, align 8
  %m_prev = getelementptr inbounds %class.b2Contact, ptr %9, i32 0, i32 2
  %10 = load ptr, ptr %m_prev, align 8
  %tobool7 = icmp ne ptr %10, null
  br i1 %tobool7, label %if.then8, label %if.end11

if.then8:                                         ; preds = %if.end
  %11 = load ptr, ptr %c.addr, align 8
  %m_next = getelementptr inbounds %class.b2Contact, ptr %11, i32 0, i32 3
  %12 = load ptr, ptr %m_next, align 8
  %13 = load ptr, ptr %c.addr, align 8
  %m_prev9 = getelementptr inbounds %class.b2Contact, ptr %13, i32 0, i32 2
  %14 = load ptr, ptr %m_prev9, align 8
  %m_next10 = getelementptr inbounds %class.b2Contact, ptr %14, i32 0, i32 3
  store ptr %12, ptr %m_next10, align 8
  br label %if.end11

if.end11:                                         ; preds = %if.then8, %if.end
  %15 = load ptr, ptr %c.addr, align 8
  %m_next12 = getelementptr inbounds %class.b2Contact, ptr %15, i32 0, i32 3
  %16 = load ptr, ptr %m_next12, align 8
  %tobool13 = icmp ne ptr %16, null
  br i1 %tobool13, label %if.then14, label %if.end18

if.then14:                                        ; preds = %if.end11
  %17 = load ptr, ptr %c.addr, align 8
  %m_prev15 = getelementptr inbounds %class.b2Contact, ptr %17, i32 0, i32 2
  %18 = load ptr, ptr %m_prev15, align 8
  %19 = load ptr, ptr %c.addr, align 8
  %m_next16 = getelementptr inbounds %class.b2Contact, ptr %19, i32 0, i32 3
  %20 = load ptr, ptr %m_next16, align 8
  %m_prev17 = getelementptr inbounds %class.b2Contact, ptr %20, i32 0, i32 2
  store ptr %18, ptr %m_prev17, align 8
  br label %if.end18

if.end18:                                         ; preds = %if.then14, %if.end11
  %21 = load ptr, ptr %c.addr, align 8
  %m_contactList = getelementptr inbounds %class.b2ContactManager, ptr %this1, i32 0, i32 1
  %22 = load ptr, ptr %m_contactList, align 8
  %cmp = icmp eq ptr %21, %22
  br i1 %cmp, label %if.then19, label %if.end22

if.then19:                                        ; preds = %if.end18
  %23 = load ptr, ptr %c.addr, align 8
  %m_next20 = getelementptr inbounds %class.b2Contact, ptr %23, i32 0, i32 3
  %24 = load ptr, ptr %m_next20, align 8
  %m_contactList21 = getelementptr inbounds %class.b2ContactManager, ptr %this1, i32 0, i32 1
  store ptr %24, ptr %m_contactList21, align 8
  br label %if.end22

if.end22:                                         ; preds = %if.then19, %if.end18
  %25 = load ptr, ptr %c.addr, align 8
  %m_nodeA = getelementptr inbounds %class.b2Contact, ptr %25, i32 0, i32 4
  %prev = getelementptr inbounds %struct.b2ContactEdge, ptr %m_nodeA, i32 0, i32 2
  %26 = load ptr, ptr %prev, align 8
  %tobool23 = icmp ne ptr %26, null
  br i1 %tobool23, label %if.then24, label %if.end29

if.then24:                                        ; preds = %if.end22
  %27 = load ptr, ptr %c.addr, align 8
  %m_nodeA25 = getelementptr inbounds %class.b2Contact, ptr %27, i32 0, i32 4
  %next = getelementptr inbounds %struct.b2ContactEdge, ptr %m_nodeA25, i32 0, i32 3
  %28 = load ptr, ptr %next, align 8
  %29 = load ptr, ptr %c.addr, align 8
  %m_nodeA26 = getelementptr inbounds %class.b2Contact, ptr %29, i32 0, i32 4
  %prev27 = getelementptr inbounds %struct.b2ContactEdge, ptr %m_nodeA26, i32 0, i32 2
  %30 = load ptr, ptr %prev27, align 8
  %next28 = getelementptr inbounds %struct.b2ContactEdge, ptr %30, i32 0, i32 3
  store ptr %28, ptr %next28, align 8
  br label %if.end29

if.end29:                                         ; preds = %if.then24, %if.end22
  %31 = load ptr, ptr %c.addr, align 8
  %m_nodeA30 = getelementptr inbounds %class.b2Contact, ptr %31, i32 0, i32 4
  %next31 = getelementptr inbounds %struct.b2ContactEdge, ptr %m_nodeA30, i32 0, i32 3
  %32 = load ptr, ptr %next31, align 8
  %tobool32 = icmp ne ptr %32, null
  br i1 %tobool32, label %if.then33, label %if.end39

if.then33:                                        ; preds = %if.end29
  %33 = load ptr, ptr %c.addr, align 8
  %m_nodeA34 = getelementptr inbounds %class.b2Contact, ptr %33, i32 0, i32 4
  %prev35 = getelementptr inbounds %struct.b2ContactEdge, ptr %m_nodeA34, i32 0, i32 2
  %34 = load ptr, ptr %prev35, align 8
  %35 = load ptr, ptr %c.addr, align 8
  %m_nodeA36 = getelementptr inbounds %class.b2Contact, ptr %35, i32 0, i32 4
  %next37 = getelementptr inbounds %struct.b2ContactEdge, ptr %m_nodeA36, i32 0, i32 3
  %36 = load ptr, ptr %next37, align 8
  %prev38 = getelementptr inbounds %struct.b2ContactEdge, ptr %36, i32 0, i32 2
  store ptr %34, ptr %prev38, align 8
  br label %if.end39

if.end39:                                         ; preds = %if.then33, %if.end29
  %37 = load ptr, ptr %c.addr, align 8
  %m_nodeA40 = getelementptr inbounds %class.b2Contact, ptr %37, i32 0, i32 4
  %38 = load ptr, ptr %bodyA, align 8
  %m_contactList41 = getelementptr inbounds %class.b2Body, ptr %38, i32 0, i32 15
  %39 = load ptr, ptr %m_contactList41, align 8
  %cmp42 = icmp eq ptr %m_nodeA40, %39
  br i1 %cmp42, label %if.then43, label %if.end47

if.then43:                                        ; preds = %if.end39
  %40 = load ptr, ptr %c.addr, align 8
  %m_nodeA44 = getelementptr inbounds %class.b2Contact, ptr %40, i32 0, i32 4
  %next45 = getelementptr inbounds %struct.b2ContactEdge, ptr %m_nodeA44, i32 0, i32 3
  %41 = load ptr, ptr %next45, align 8
  %42 = load ptr, ptr %bodyA, align 8
  %m_contactList46 = getelementptr inbounds %class.b2Body, ptr %42, i32 0, i32 15
  store ptr %41, ptr %m_contactList46, align 8
  br label %if.end47

if.end47:                                         ; preds = %if.then43, %if.end39
  %43 = load ptr, ptr %c.addr, align 8
  %m_nodeB = getelementptr inbounds %class.b2Contact, ptr %43, i32 0, i32 5
  %prev48 = getelementptr inbounds %struct.b2ContactEdge, ptr %m_nodeB, i32 0, i32 2
  %44 = load ptr, ptr %prev48, align 8
  %tobool49 = icmp ne ptr %44, null
  br i1 %tobool49, label %if.then50, label %if.end56

if.then50:                                        ; preds = %if.end47
  %45 = load ptr, ptr %c.addr, align 8
  %m_nodeB51 = getelementptr inbounds %class.b2Contact, ptr %45, i32 0, i32 5
  %next52 = getelementptr inbounds %struct.b2ContactEdge, ptr %m_nodeB51, i32 0, i32 3
  %46 = load ptr, ptr %next52, align 8
  %47 = load ptr, ptr %c.addr, align 8
  %m_nodeB53 = getelementptr inbounds %class.b2Contact, ptr %47, i32 0, i32 5
  %prev54 = getelementptr inbounds %struct.b2ContactEdge, ptr %m_nodeB53, i32 0, i32 2
  %48 = load ptr, ptr %prev54, align 8
  %next55 = getelementptr inbounds %struct.b2ContactEdge, ptr %48, i32 0, i32 3
  store ptr %46, ptr %next55, align 8
  br label %if.end56

if.end56:                                         ; preds = %if.then50, %if.end47
  %49 = load ptr, ptr %c.addr, align 8
  %m_nodeB57 = getelementptr inbounds %class.b2Contact, ptr %49, i32 0, i32 5
  %next58 = getelementptr inbounds %struct.b2ContactEdge, ptr %m_nodeB57, i32 0, i32 3
  %50 = load ptr, ptr %next58, align 8
  %tobool59 = icmp ne ptr %50, null
  br i1 %tobool59, label %if.then60, label %if.end66

if.then60:                                        ; preds = %if.end56
  %51 = load ptr, ptr %c.addr, align 8
  %m_nodeB61 = getelementptr inbounds %class.b2Contact, ptr %51, i32 0, i32 5
  %prev62 = getelementptr inbounds %struct.b2ContactEdge, ptr %m_nodeB61, i32 0, i32 2
  %52 = load ptr, ptr %prev62, align 8
  %53 = load ptr, ptr %c.addr, align 8
  %m_nodeB63 = getelementptr inbounds %class.b2Contact, ptr %53, i32 0, i32 5
  %next64 = getelementptr inbounds %struct.b2ContactEdge, ptr %m_nodeB63, i32 0, i32 3
  %54 = load ptr, ptr %next64, align 8
  %prev65 = getelementptr inbounds %struct.b2ContactEdge, ptr %54, i32 0, i32 2
  store ptr %52, ptr %prev65, align 8
  br label %if.end66

if.end66:                                         ; preds = %if.then60, %if.end56
  %55 = load ptr, ptr %c.addr, align 8
  %m_nodeB67 = getelementptr inbounds %class.b2Contact, ptr %55, i32 0, i32 5
  %56 = load ptr, ptr %bodyB, align 8
  %m_contactList68 = getelementptr inbounds %class.b2Body, ptr %56, i32 0, i32 15
  %57 = load ptr, ptr %m_contactList68, align 8
  %cmp69 = icmp eq ptr %m_nodeB67, %57
  br i1 %cmp69, label %if.then70, label %if.end74

if.then70:                                        ; preds = %if.end66
  %58 = load ptr, ptr %c.addr, align 8
  %m_nodeB71 = getelementptr inbounds %class.b2Contact, ptr %58, i32 0, i32 5
  %next72 = getelementptr inbounds %struct.b2ContactEdge, ptr %m_nodeB71, i32 0, i32 3
  %59 = load ptr, ptr %next72, align 8
  %60 = load ptr, ptr %bodyB, align 8
  %m_contactList73 = getelementptr inbounds %class.b2Body, ptr %60, i32 0, i32 15
  store ptr %59, ptr %m_contactList73, align 8
  br label %if.end74

if.end74:                                         ; preds = %if.then70, %if.end66
  %61 = load ptr, ptr %c.addr, align 8
  %m_allocator = getelementptr inbounds %class.b2ContactManager, ptr %this1, i32 0, i32 5
  %62 = load ptr, ptr %m_allocator, align 8
  call void @_ZN9b2Contact7DestroyEPS_P16b2BlockAllocator(ptr noundef %61, ptr noundef %62)
  %m_contactCount = getelementptr inbounds %class.b2ContactManager, ptr %this1, i32 0, i32 2
  %63 = load i32, ptr %m_contactCount, align 8
  %dec = add nsw i32 %63, -1
  store i32 %dec, ptr %m_contactCount, align 8
  ret void
}