; Function Attrs: mustprogress uwtable
define void @_ZN16b2ContactManager7DestroyEP9b2Contact(ptr nocapture noundef nonnull align 8 dereferenceable(120) %this, ptr noundef %c) local_unnamed_addr #1 align 2 {
entry:
  %m_fixtureA.i = getelementptr inbounds i8, ptr %c, i64 96
  %0 = load ptr, ptr %m_fixtureA.i, align 8
  %m_fixtureB.i = getelementptr inbounds i8, ptr %c, i64 104
  %1 = load ptr, ptr %m_fixtureB.i, align 8
  %m_body.i = getelementptr inbounds i8, ptr %0, i64 16
  %2 = load ptr, ptr %m_body.i, align 8
  %m_body.i36 = getelementptr inbounds i8, ptr %1, i64 16
  %3 = load ptr, ptr %m_body.i36, align 8
  %m_contactListener = getelementptr inbounds i8, ptr %this, i64 104
  %4 = load ptr, ptr %m_contactListener, align 8
  %tobool.not = icmp eq ptr %4, null
  br i1 %tobool.not, label %if.end, label %land.lhs.true

land.lhs.true:                                    ; preds = %entry
  %m_flags.i = getelementptr inbounds i8, ptr %c, i64 8
  %5 = load i32, ptr %m_flags.i, align 8
  %and.i = and i32 %5, 2
  %cmp.i.not = icmp eq i32 %and.i, 0
  br i1 %cmp.i.not, label %if.end, label %if.then

if.then:                                          ; preds = %land.lhs.true
  %vtable = load ptr, ptr %4, align 8
  %vfn = getelementptr inbounds i8, ptr %vtable, i64 24
  %6 = load ptr, ptr %vfn, align 8
  tail call void %6(ptr noundef nonnull align 8 dereferenceable(8) %4, ptr noundef nonnull %c)
  br label %if.end

if.end:                                           ; preds = %if.then, %land.lhs.true, %entry
  %m_prev = getelementptr inbounds i8, ptr %c, i64 16
  %7 = load ptr, ptr %m_prev, align 8
  %tobool7.not = icmp eq ptr %7, null
  %m_next12.phi.trans.insert = getelementptr inbounds i8, ptr %c, i64 24
  %.pre = load ptr, ptr %m_next12.phi.trans.insert, align 8
  br i1 %tobool7.not, label %if.end11, label %if.then8

if.then8:                                         ; preds = %if.end
  %m_next10 = getelementptr inbounds i8, ptr %7, i64 24
  store ptr %.pre, ptr %m_next10, align 8
  br label %if.end11

if.end11:                                         ; preds = %if.end, %if.then8
  %m_next12 = getelementptr inbounds i8, ptr %c, i64 24
  %tobool13.not = icmp eq ptr %.pre, null
  br i1 %tobool13.not, label %if.end18, label %if.then14

if.then14:                                        ; preds = %if.end11
  %8 = load ptr, ptr %m_prev, align 8
  %m_prev17 = getelementptr inbounds i8, ptr %.pre, i64 16
  store ptr %8, ptr %m_prev17, align 8
  br label %if.end18

if.end18:                                         ; preds = %if.then14, %if.end11
  %m_contactList = getelementptr inbounds i8, ptr %this, i64 80
  %9 = load ptr, ptr %m_contactList, align 8
  %cmp = icmp eq ptr %9, %c
  br i1 %cmp, label %if.then19, label %if.end22

if.then19:                                        ; preds = %if.end18
  %10 = load ptr, ptr %m_next12, align 8
  store ptr %10, ptr %m_contactList, align 8
  br label %if.end22

if.end22:                                         ; preds = %if.then19, %if.end18
  %m_nodeA = getelementptr inbounds i8, ptr %c, i64 32
  %prev = getelementptr inbounds i8, ptr %c, i64 48
  %11 = load ptr, ptr %prev, align 8
  %tobool23.not = icmp eq ptr %11, null
  %next31.phi.trans.insert = getelementptr inbounds i8, ptr %c, i64 56
  %.pre37 = load ptr, ptr %next31.phi.trans.insert, align 8
  br i1 %tobool23.not, label %if.end29, label %if.then24

if.then24:                                        ; preds = %if.end22
  %next28 = getelementptr inbounds i8, ptr %11, i64 24
  store ptr %.pre37, ptr %next28, align 8
  br label %if.end29

if.end29:                                         ; preds = %if.end22, %if.then24
  %next31 = getelementptr inbounds i8, ptr %c, i64 56
  %tobool32.not = icmp eq ptr %.pre37, null
  br i1 %tobool32.not, label %if.end39, label %if.then33

if.then33:                                        ; preds = %if.end29
  %12 = load ptr, ptr %prev, align 8
  %prev38 = getelementptr inbounds i8, ptr %.pre37, i64 16
  store ptr %12, ptr %prev38, align 8
  br label %if.end39

if.end39:                                         ; preds = %if.then33, %if.end29
  %m_contactList41 = getelementptr inbounds i8, ptr %2, i64 136
  %13 = load ptr, ptr %m_contactList41, align 8
  %cmp42 = icmp eq ptr %m_nodeA, %13
  br i1 %cmp42, label %if.then43, label %if.end47

if.then43:                                        ; preds = %if.end39
  %14 = load ptr, ptr %next31, align 8
  store ptr %14, ptr %m_contactList41, align 8
  br label %if.end47

if.end47:                                         ; preds = %if.then43, %if.end39
  %m_nodeB = getelementptr inbounds i8, ptr %c, i64 64
  %prev48 = getelementptr inbounds i8, ptr %c, i64 80
  %15 = load ptr, ptr %prev48, align 8
  %tobool49.not = icmp eq ptr %15, null
  %next58.phi.trans.insert = getelementptr inbounds i8, ptr %c, i64 88
  %.pre38 = load ptr, ptr %next58.phi.trans.insert, align 8
  br i1 %tobool49.not, label %if.end56, label %if.then50

if.then50:                                        ; preds = %if.end47
  %next55 = getelementptr inbounds i8, ptr %15, i64 24
  store ptr %.pre38, ptr %next55, align 8
  br label %if.end56

if.end56:                                         ; preds = %if.end47, %if.then50
  %next58 = getelementptr inbounds i8, ptr %c, i64 88
  %tobool59.not = icmp eq ptr %.pre38, null
  br i1 %tobool59.not, label %if.end66, label %if.then60

if.then60:                                        ; preds = %if.end56
  %16 = load ptr, ptr %prev48, align 8
  %prev65 = getelementptr inbounds i8, ptr %.pre38, i64 16
  store ptr %16, ptr %prev65, align 8
  br label %if.end66

if.end66:                                         ; preds = %if.then60, %if.end56
  %m_contactList68 = getelementptr inbounds i8, ptr %3, i64 136
  %17 = load ptr, ptr %m_contactList68, align 8
  %cmp69 = icmp eq ptr %m_nodeB, %17
  br i1 %cmp69, label %if.then70, label %if.end74

if.then70:                                        ; preds = %if.end66
  %18 = load ptr, ptr %next58, align 8
  store ptr %18, ptr %m_contactList68, align 8
  br label %if.end74

if.end74:                                         ; preds = %if.then70, %if.end66
  %m_allocator = getelementptr inbounds i8, ptr %this, i64 112
  %19 = load ptr, ptr %m_allocator, align 8
  tail call void @_ZN9b2Contact7DestroyEPS_P16b2BlockAllocator(ptr noundef nonnull %c, ptr noundef %19)
  %m_contactCount = getelementptr inbounds i8, ptr %this, i64 88
  %20 = load i32, ptr %m_contactCount, align 8
  %dec = add nsw i32 %20, -1
  store i32 %dec, ptr %m_contactCount, align 8
  ret void
}